; Function Attrs: mustprogress uwtable
define hidden void @_ZN4ncnn9ExtractorC2EPKNS_3NetEm(ptr noundef nonnull align 8 captures(none) dereferenceable(16) initializes((0, 8)) %0, ptr noundef %1, i64 noundef %2) unnamed_addr #2 align 2 personality ptr @__gxx_personality_v0 {
  store ptr getelementptr inbounds nuw inrange(-16, 16) (i8, ptr @_ZTVN4ncnn9ExtractorE, i64 16), ptr %0, align 8, !tbaa !4
  %4 = tail call noalias noundef nonnull dereferenceable(96) ptr @_Znwm(i64 noundef 96) #31
  store ptr %1, ptr %4, align 8, !tbaa !210
  %5 = getelementptr inbounds nuw i8, ptr %4, i64 8
  tail call void @llvm.memset.p0.i64(ptr noundef nonnull align 8 dereferenceable(24) %5, i8 0, i64 24, i1 false)
  %6 = getelementptr inbounds nuw i8, ptr %4, i64 32
  invoke void @_ZN4ncnn6OptionC1Ev(ptr noundef nonnull align 8 dereferenceable(64) %6)
          to label %_ZN4ncnn16ExtractorPrivateC2EPKNS_3NetE.exit unwind label %.body

.body:                                            ; preds = %3
  %7 = landingpad { ptr, i32 }
          cleanup
  tail call void @_ZNSt6vectorIN4ncnn3MatESaIS1_EED2Ev(ptr noundef nonnull align 8 dereferenceable(24) %5) #26
  tail call void @_ZdlPvm(ptr noundef nonnull %4, i64 noundef 96) #27
  resume { ptr, i32 } %7

_ZN4ncnn16ExtractorPrivateC2EPKNS_3NetE.exit:     ; preds = %3
  %8 = getelementptr inbounds nuw i8, ptr %0, i64 8
  store ptr %4, ptr %8, align 8, !tbaa !213
  tail call void @_ZNSt6vectorIN4ncnn3MatESaIS1_EE6resizeEm(ptr noundef nonnull align 8 dereferenceable(24) %5, i64 noundef %2)
  %9 = load ptr, ptr %8, align 8, !tbaa !213
  %10 = load ptr, ptr %9, align 8, !tbaa !210
  %11 = getelementptr inbounds nuw i8, ptr %10, i64 8
  %12 = getelementptr inbounds nuw i8, ptr %9, i64 32
  tail call void @llvm.memcpy.p0.p0.i64(ptr noundef nonnull align 8 dereferenceable(64) %12, ptr noundef nonnull align 8 dereferenceable(64) %11, i64 64, i1 false), !tbaa.struct !72
  ret void
}